target datalayout = "e-m:e-p270:32:32-p271:32:32-p272:64:64-i64:64-i128:128-f80:128-n8:16:32:64-S128"
target triple = "x86_64-pc-linux-gnu"

%struct.pe_image_file_hdr = type { i32, i16, i16, i32, i32, i32, i16, i16 }
%struct.pe_image_optional_hdr64 = type { i16, i8, i8, i32, i32, i32, i32, i32, i64, i32, i32, i16, i16, i16, i16, i16, i16, i32, i32, i32, i32, i16, i16, i64, i64, i64, i64, i32, i32 }
%struct.pe_image_data_dir = type { i32, i32 }
%struct.cli_bc_ctx = type { i8, i16, i32, ptr, ptr, i32, i32, ptr, ptr, ptr, i32, i32, i64, ptr, ptr, ptr, %struct.cli_bc_hooks, %struct.cli_exe_info, [64 x i32], [64 x i32], i32, ptr, ptr, i32, i32, i32, i32, ptr, i32, ptr, ptr, i32, i32, i32, i32, i32, i32, ptr, ptr, ptr, ptr, ptr, ptr, ptr, i32, i32, i32, i32, ptr, ptr, ptr, ptr, ptr, i32, i32, i32, i32, ptr, ptr, ptr, ptr, i32, i32, i32, ptr, i32, ptr, i32, i32, ptr, i32 }
%struct.cli_bc_hooks = type { ptr, ptr, ptr, ptr, ptr }
%struct.cli_exe_info = type { ptr, i32, i32, i16, i32, i32, %struct.cli_hashset, i32, i32, i32, i32, i32, i32, i32, i32, i32, %struct.pe_image_file_hdr, %union.anon, [16 x %struct.pe_image_data_dir] }
%struct.cli_hashset = type { ptr, ptr, ptr, i32, i32, i32, i32 }
%union.anon = type { %struct.pe_image_optional_hdr64 }
%struct.cl_fmap = type { ptr, ptr, ptr, i64, i64, i64, i64, i8, i8, i8, i64, i64, i64, i64, ptr, ptr, ptr, ptr, ptr, ptr, ptr, i8, [16 x i8], i8, [20 x i8], i8, [32 x i8], ptr, ptr }

; Function Attrs: nounwind uwtable
define i32 @cli_bytecode_context_setfile(ptr noundef %0, ptr noundef %1) #0 {
  %3 = alloca ptr, align 8
  %4 = alloca ptr, align 8
  store ptr %0, ptr %3, align 8
  store ptr %1, ptr %4, align 8
  %5 = load ptr, ptr %4, align 8
  %6 = load ptr, ptr %3, align 8
  %7 = getelementptr inbounds %struct.cli_bc_ctx, ptr %6, i32 0, i32 13
  store ptr %5, ptr %7, align 8
  %8 = load ptr, ptr %4, align 8
  %9 = getelementptr inbounds %struct.cl_fmap, ptr %8, i32 0, i32 13
  %10 = load i64, ptr %9, align 8
  %11 = trunc i64 %10 to i32
  %12 = load ptr, ptr %3, align 8
  %13 = getelementptr inbounds %struct.cli_bc_ctx, ptr %12, i32 0, i32 10
  store i32 %11, ptr %13, align 8
  %14 = load ptr, ptr %3, align 8
  %15 = getelementptr inbounds %struct.cli_bc_ctx, ptr %14, i32 0, i32 10
  %16 = load ptr, ptr %3, align 8
  %17 = getelementptr inbounds %struct.cli_bc_ctx, ptr %16, i32 0, i32 16
  %18 = getelementptr inbounds %struct.cli_bc_hooks, ptr %17, i32 0, i32 3
  store ptr %15, ptr %18, align 8
  ret i32 0
}