; Function Attrs: mustprogress nofree norecurse nosync nounwind willreturn memory(argmem: readwrite) uwtable
define noundef i32 @cli_bytecode_context_setfile(ptr noundef %0, ptr noundef %1) local_unnamed_addr #4 {
  %3 = getelementptr inbounds i8, ptr %0, i64 72
  store ptr %1, ptr %3, align 8
  %4 = getelementptr inbounds i8, ptr %1, i64 88
  %5 = load i64, ptr %4, align 8
  %6 = trunc i64 %5 to i32
  %7 = getelementptr inbounds i8, ptr %0, i64 56
  store i32 %6, ptr %7, align 8
  %8 = getelementptr inbounds i8, ptr %0, i64 120
  store ptr %7, ptr %8, align 8
  ret i32 0
}